	.file	"ts2.cpp"
	.text
.Ltext0:
	.cfi_sections	.debug_frame
	.section	.text$_Z6printfPKcz,"x"
	.linkonce discard
	.p2align 4,,15
	.globl	_Z6printfPKcz
	.def	_Z6printfPKcz;	.scl	2;	.type	32;	.endef
	.seh_proc	_Z6printfPKcz
_Z6printfPKcz:
.LVL0:
.LFB5979:
	.file 1 "D:/Programs/mingw-w64/mingw64/x86_64-w64-mingw32/include/stdio.h"
	.loc 1 346 1 view -0
	.cfi_startproc
	.loc 1 346 1 is_stmt 0 view .LVU1
	pushq	%rsi
	.seh_pushreg	%rsi
	.cfi_def_cfa_offset 16
	.cfi_offset 4, -16
	pushq	%rbx
	.seh_pushreg	%rbx
	.cfi_def_cfa_offset 24
	.cfi_offset 3, -24
	subq	$56, %rsp
	.seh_stackalloc	56
	.cfi_def_cfa_offset 80
	.seh_endprologue
	.loc 1 347 3 is_stmt 1 view .LVU2
	.loc 1 348 3 view .LVU3
	.loc 1 348 35 view .LVU4
	.loc 1 348 53 is_stmt 0 view .LVU5
	leaq	88(%rsp), %rbx
	.loc 1 346 1 view .LVU6
	movq	%rcx, %rsi
	movq	%rdx, 88(%rsp)
	.loc 1 349 30 view .LVU7
	movl	$1, %ecx
.LVL1:
	.loc 1 346 1 view .LVU8
	movq	%r8, 96(%rsp)
	movq	%r9, 104(%rsp)
	.loc 1 348 53 view .LVU9
	movq	%rbx, 40(%rsp)
	.loc 1 349 3 is_stmt 1 view .LVU10
	.loc 1 349 30 is_stmt 0 view .LVU11
	call	*__imp___acrt_iob_func(%rip)
.LVL2:
	movq	%rbx, %r8
	movq	%rsi, %rdx
	movq	%rax, %rcx
	call	__mingw_vfprintf
.LVL3:
	.loc 1 350 3 is_stmt 1 view .LVU12
	.loc 1 351 3 view .LVU13
	.loc 1 352 1 is_stmt 0 view .LVU14
	addq	$56, %rsp
	.cfi_def_cfa_offset 24
	popq	%rbx
	.cfi_restore 3
	.cfi_def_cfa_offset 16
	popq	%rsi
	.cfi_restore 4
	.cfi_def_cfa_offset 8
.LVL4:
	.loc 1 352 1 view .LVU15
	ret
	.cfi_endproc
.LFE5979:
	.seh_endproc
	.section .rdata,"dr"
.LC0:
	.ascii "Accepted socket number %llu\12\0"
	.align 8
.LC1:
	.ascii "GlobalAlloc() failed with error %lu\12\0"
	.align 8
.LC2:
	.ascii "GlobalAlloc() for SOCKET_INFORMATION is OK!\12\0"
	.text
	.p2align 4,,15
	.globl	_Z23CreateSocketInformationy
	.def	_Z23CreateSocketInformationy;	.scl	2;	.type	32;	.endef
	.seh_proc	_Z23CreateSocketInformationy
_Z23CreateSocketInformationy:
.LVL5:
.LFB6018:
	.file 2 "../ts2.cpp"
	.loc 2 300 1 is_stmt 1 view -0
	.cfi_startproc
	.loc 2 300 1 is_stmt 0 view .LVU17
	pushq	%rsi
	.seh_pushreg	%rsi
	.cfi_def_cfa_offset 16
	.cfi_offset 4, -16
	pushq	%rbx
	.seh_pushreg	%rbx
	.cfi_def_cfa_offset 24
	.cfi_offset 3, -24
	subq	$40, %rsp
	.seh_stackalloc	40
	.cfi_def_cfa_offset 64
	.seh_endprologue
	.loc 2 302 4 is_stmt 1 view .LVU18
	.loc 2 304 4 view .LVU19
	.loc 2 304 10 is_stmt 0 view .LVU20
	movq	%rcx, %rdx
	.loc 2 300 1 view .LVU21
	movq	%rcx, %rsi
	.loc 2 304 10 view .LVU22
	leaq	.LC0(%rip), %rcx
.LVL6:
	.loc 2 304 10 view .LVU23
	call	_Z6printfPKcz
.LVL7:
	.loc 2 307 4 is_stmt 1 view .LVU24
	.loc 2 307 48 is_stmt 0 view .LVU25
	movl	$8256, %edx
	movl	$64, %ecx
	call	*__imp_GlobalAlloc(%rip)
.LVL8:
	.loc 2 307 4 view .LVU26
	testq	%rax, %rax
	.loc 2 307 48 view .LVU27
	movq	%rax, %rbx
.LVL9:
	.loc 2 307 4 view .LVU28
	je	.L6
	.loc 2 313 7 is_stmt 1 view .LVU29
	.loc 2 313 13 is_stmt 0 view .LVU30
	leaq	.LC2(%rip), %rcx
	call	_Z6printfPKcz
.LVL10:
	.loc 2 317 4 is_stmt 1 view .LVU31
	.loc 2 322 28 is_stmt 0 view .LVU32
	movl	TotalSockets(%rip), %ecx
	.loc 2 322 30 view .LVU33
	leaq	SocketArray(%rip), %rdx
	.loc 2 317 15 view .LVU34
	movq	%rsi, 8208(%rbx)
	.loc 2 318 4 is_stmt 1 view .LVU35
	.loc 2 320 4 view .LVU36
	.loc 2 318 18 is_stmt 0 view .LVU37
	movq	$0, 8248(%rbx)
	.loc 2 322 4 is_stmt 1 view .LVU38
	.loc 2 322 28 is_stmt 0 view .LVU39
	movq	%rcx, %rax
	.loc 2 322 30 view .LVU40
	movq	%rbx, (%rdx,%rcx,8)
	.loc 2 323 4 is_stmt 1 view .LVU41
	.loc 2 323 16 is_stmt 0 view .LVU42
	addl	$1, %eax
	movl	%eax, TotalSockets(%rip)
	.loc 2 324 4 is_stmt 1 view .LVU43
	.loc 2 324 14 is_stmt 0 view .LVU44
	movl	$1, %eax
	.loc 2 325 1 view .LVU45
	addq	$40, %rsp
	.cfi_remember_state
	.cfi_def_cfa_offset 24
	popq	%rbx
	.cfi_restore 3
	.cfi_def_cfa_offset 16
.LVL11:
	.loc 2 325 1 view .LVU46
	popq	%rsi
	.cfi_restore 4
	.cfi_def_cfa_offset 8
.LVL12:
	.loc 2 325 1 view .LVU47
	ret
.LVL13:
	.p2align 4,,10
.L6:
	.cfi_restore_state
.LBB4:
.LBB5:
	.loc 2 309 7 is_stmt 1 view .LVU48
	.loc 2 309 13 is_stmt 0 view .LVU49
	call	*__imp_GetLastError(%rip)
.LVL14:
	.loc 2 309 13 view .LVU50
	leaq	.LC1(%rip), %rcx
	movl	%eax, %edx
	call	_Z6printfPKcz
.LVL15:
	.loc 2 310 7 is_stmt 1 view .LVU51
	.loc 2 309 13 is_stmt 0 view .LVU52
	xorl	%eax, %eax
.LBE5:
.LBE4:
	.loc 2 325 1 view .LVU53
	addq	$40, %rsp
	.cfi_def_cfa_offset 24
	popq	%rbx
	.cfi_restore 3
	.cfi_def_cfa_offset 16
.LVL16:
	.loc 2 325 1 view .LVU54
	popq	%rsi
	.cfi_restore 4
	.cfi_def_cfa_offset 8
.LVL17:
	.loc 2 325 1 view .LVU55
	ret
	.cfi_endproc
.LFE6018:
	.seh_endproc
	.section .rdata,"dr"
.LC3:
	.ascii "Closing socket number %llu\12\0"
	.text
	.p2align 4,,15
	.globl	_Z21FreeSocketInformationm
	.def	_Z21FreeSocketInformationm;	.scl	2;	.type	32;	.endef
	.seh_proc	_Z21FreeSocketInformationm
_Z21FreeSocketInformationm:
.LVL18:
.LFB6019:
	.loc 2 330 1 is_stmt 1 view -0
	.cfi_startproc
	.loc 2 330 1 is_stmt 0 view .LVU57
	pushq	%rbp
	.seh_pushreg	%rbp
	.cfi_def_cfa_offset 16
	.cfi_offset 6, -16
	pushq	%rdi
	.seh_pushreg	%rdi
	.cfi_def_cfa_offset 24
	.cfi_offset 5, -24
	pushq	%rsi
	.seh_pushreg	%rsi
	.cfi_def_cfa_offset 32
	.cfi_offset 4, -32
	pushq	%rbx
	.seh_pushreg	%rbx
	.cfi_def_cfa_offset 40
	.cfi_offset 3, -40
	subq	$40, %rsp
	.seh_stackalloc	40
	.cfi_def_cfa_offset 80
	.seh_endprologue
	.loc 2 331 4 is_stmt 1 view .LVU58
	.loc 2 331 25 is_stmt 0 view .LVU59
	leaq	SocketArray(%rip), %rbp
	.loc 2 330 1 view .LVU60
	movl	%ecx, %esi
	.loc 2 331 25 view .LVU61
	movq	0(%rbp,%rsi,8), %rdi
.LVL19:
	.loc 2 332 4 is_stmt 1 view .LVU62
	.loc 2 334 4 view .LVU63
	.loc 2 334 15 is_stmt 0 view .LVU64
	movq	8208(%rdi), %rcx
.LVL20:
	.loc 2 334 15 view .LVU65
	call	*__imp_closesocket(%rip)
.LVL21:
	.loc 2 335 4 is_stmt 1 view .LVU66
	.loc 2 335 10 is_stmt 0 view .LVU67
	movq	8208(%rdi), %rdx
	leaq	.LC3(%rip), %rcx
	call	_Z6printfPKcz
.LVL22:
	.loc 2 336 4 is_stmt 1 view .LVU68
	.loc 2 336 14 is_stmt 0 view .LVU69
	movq	%rdi, %rcx
	call	*__imp_GlobalFree(%rip)
.LVL23:
	.loc 2 339 4 is_stmt 1 view .LVU70
	.loc 2 339 22 is_stmt 0 view .LVU71
	movl	TotalSockets(%rip), %edx
	leal	-1(%rdx), %r9d
	cmpl	%edx, %esi
	jnb	.L8
	leal	-1(%rdx), %r9d
	leaq	8+SocketArray(%rip), %rcx
	movl	%r9d, %edx
	leaq	0(%rbp,%rsi,8), %rax
	subl	%esi, %edx
	addq	%rsi, %rdx
	leaq	(%rcx,%rdx,8), %r8
	.loc 2 341 41 view .LVU72
	leal	1(%rsi), %ecx
	subq	%rsi, %rcx
.LVL24:
	.p2align 4,,10
.L9:
	.loc 2 341 7 is_stmt 1 discriminator 2 view .LVU73
	.loc 2 341 41 is_stmt 0 discriminator 2 view .LVU74
	movq	(%rax,%rcx,8), %rdx
	addq	$8, %rax
	.loc 2 341 22 discriminator 2 view .LVU75
	movq	%rdx, -8(%rax)
	.loc 2 339 22 discriminator 2 view .LVU76
	cmpq	%r8, %rax
	jne	.L9
.L8:
	.loc 2 344 4 is_stmt 1 view .LVU77
	.loc 2 344 16 is_stmt 0 view .LVU78
	movl	%r9d, TotalSockets(%rip)
	.loc 2 346 1 view .LVU79
	addq	$40, %rsp
	.cfi_def_cfa_offset 40
	popq	%rbx
	.cfi_restore 3
	.cfi_def_cfa_offset 32
	popq	%rsi
	.cfi_restore 4
	.cfi_def_cfa_offset 24
.LVL25:
	.loc 2 346 1 view .LVU80
	popq	%rdi
	.cfi_restore 5
	.cfi_def_cfa_offset 16
.LVL26:
	.loc 2 346 1 view .LVU81
	popq	%rbp
	.cfi_restore 6
	.cfi_def_cfa_offset 8
	ret
	.cfi_endproc
.LFE6019:
	.seh_endproc
	.def	__main;	.scl	2;	.type	32;	.endef
	.section .rdata,"dr"
	.align 8
.LC4:
	.ascii "Usage : ts2 [source port] [destination port]\0"
	.align 8
.LC5:
	.ascii "WSAStartup() failed with error %d\12\0"
.LC6:
	.ascii "WSAStartup() is fine!\12\0"
	.align 8
.LC7:
	.ascii "WSASocket() failed with error %d\12\0"
.LC8:
	.ascii "WSASocket() is OK!\12\0"
.LC9:
	.ascii "bind() failed with error %d\12\0"
.LC10:
	.ascii "bind() is OK!\12\0"
	.align 8
.LC11:
	.ascii "listen() failed with error %d\12\0"
.LC12:
	.ascii "listen() is OK!\12\0"
	.align 8
.LC13:
	.ascii "ioctlsocket() failed with error %d\12\0"
.LC14:
	.ascii "ioctlsocket() is OK!\12\0"
	.align 8
.LC15:
	.ascii "select() returned with error %d\12\0"
.LC16:
	.ascii "select() is OK!\12\0"
	.align 8
.LC17:
	.ascii "ioctlsocket(FIONBIO) failed with error %d\12\0"
.LC18:
	.ascii "ioctlsocket(FIONBIO) is OK!\12\0"
	.align 8
.LC19:
	.ascii "CreateSocketInformation(AcceptSocket) failed!\12\0"
	.align 8
.LC20:
	.ascii "CreateSocketInformation() is OK!\12\0"
	.align 8
.LC21:
	.ascii "accept() failed with error %d\12\0"
.LC22:
	.ascii "accept() is fine!\12\0"
	.align 8
.LC23:
	.ascii "WSARecv() failed with error %d\12\0"
.LC24:
	.ascii "WSARecv() is OK!\12\0"
	.align 8
.LC25:
	.ascii "WSASend() failed with error %d\12\0"
.LC26:
	.ascii "WSASend() is OK!\12\0"
	.section	.text.startup,"x"
	.p2align 4,,15
	.globl	main
	.def	main;	.scl	2;	.type	32;	.endef
	.seh_proc	main
main:
.LVL27:
.LFB6017:
	.loc 2 61 1 is_stmt 1 view -0
	.cfi_startproc
	.loc 2 61 1 is_stmt 0 view .LVU83
	pushq	%r15
	.seh_pushreg	%r15
	.cfi_def_cfa_offset 16
	.cfi_offset 15, -16
	pushq	%r14
	.seh_pushreg	%r14
	.cfi_def_cfa_offset 24
	.cfi_offset 14, -24
	pushq	%r13
	.seh_pushreg	%r13
	.cfi_def_cfa_offset 32
	.cfi_offset 13, -32
	pushq	%r12
	.seh_pushreg	%r12
	.cfi_def_cfa_offset 40
	.cfi_offset 12, -40
	pushq	%rbp
	.seh_pushreg	%rbp
	.cfi_def_cfa_offset 48
	.cfi_offset 6, -48
	pushq	%rdi
	.seh_pushreg	%rdi
	.cfi_def_cfa_offset 56
	.cfi_offset 5, -56
	pushq	%rsi
	.seh_pushreg	%rsi
	.cfi_def_cfa_offset 64
	.cfi_offset 4, -64
	pushq	%rbx
	.seh_pushreg	%rbx
	.cfi_def_cfa_offset 72
	.cfi_offset 3, -72
	subq	$1608, %rsp
	.seh_stackalloc	1608
	.cfi_def_cfa_offset 1680
	.seh_endprologue
	.loc 2 61 1 view .LVU84
	movl	%ecx, %esi
	movq	%rdx, %rbx
	call	__main
.LVL28:
	.loc 2 63 4 is_stmt 1 view .LVU85
	.loc 2 64 4 view .LVU86
	.loc 2 65 4 view .LVU87
	.loc 2 66 4 view .LVU88
	.loc 2 67 4 view .LVU89
	.loc 2 68 4 view .LVU90
	.loc 2 69 4 view .LVU91
	.loc 2 70 4 view .LVU92
	.loc 2 71 4 view .LVU93
	.loc 2 72 4 view .LVU94
	.loc 2 73 4 view .LVU95
	.loc 2 74 4 view .LVU96
	.loc 2 75 4 view .LVU97
	.loc 2 77 4 view .LVU98
	.loc 2 79 4 view .LVU99
	.loc 2 80 5 view .LVU100
	cmpl	$2, %esi
	jle	.L14
	.loc 2 81 9 view .LVU101
	.loc 2 81 23 is_stmt 0 view .LVU102
	movq	8(%rbx), %rcx
	call	atoi
.LVL29:
	.loc 2 82 23 view .LVU103
	movq	16(%rbx), %rcx
	.loc 2 81 23 view .LVU104
	movl	%eax, %esi
.LVL30:
	.loc 2 82 9 is_stmt 1 view .LVU105
	.loc 2 82 23 is_stmt 0 view .LVU106
	call	atoi
.LVL31:
	.loc 2 89 4 is_stmt 1 view .LVU107
	.loc 2 89 25 is_stmt 0 view .LVU108
	leaq	128(%rsp), %rdx
	movl	$514, %ecx
	call	*__imp_WSAStartup(%rip)
.LVL32:
	.loc 2 89 4 view .LVU109
	testl	%eax, %eax
	jne	.L91
	.loc 2 97 7 is_stmt 1 view .LVU110
	.loc 2 97 13 is_stmt 0 view .LVU111
	leaq	.LC6(%rip), %rcx
	call	_Z6printfPKcz
.LVL33:
	.loc 2 103 4 is_stmt 1 view .LVU112
	.loc 2 103 32 is_stmt 0 view .LVU113
	xorl	%r9d, %r9d
	xorl	%r8d, %r8d
	movl	$1, %edx
	movl	$1, 40(%rsp)
	movl	$2, %ecx
	movl	$0, 32(%rsp)
	call	*__imp_WSASocketA(%rip)
.LVL34:
	movq	%rax, 72(%rsp)
.LVL35:
	.loc 2 103 4 view .LVU114
	addq	$1, %rax
.LVL36:
	.loc 2 103 4 view .LVU115
	je	.L92
	.loc 2 109 7 is_stmt 1 view .LVU116
	.loc 2 109 13 is_stmt 0 view .LVU117
	leaq	.LC8(%rip), %rcx
	call	_Z6printfPKcz
.LVL37:
	.loc 2 113 4 is_stmt 1 view .LVU118
	.loc 2 114 39 is_stmt 0 view .LVU119
	xorl	%ecx, %ecx
	.loc 2 113 28 view .LVU120
	movw	$2, 112(%rsp)
	.loc 2 114 4 is_stmt 1 view .LVU121
	.loc 2 114 39 is_stmt 0 view .LVU122
	call	*__imp_htonl(%rip)
.LVL38:
	.loc 2 115 33 view .LVU123
	movzwl	%si, %ecx
	.loc 2 114 32 view .LVU124
	movl	%eax, 116(%rsp)
	.loc 2 115 4 is_stmt 1 view .LVU125
	.loc 2 115 33 is_stmt 0 view .LVU126
	call	*__imp_htons(%rip)
.LVL39:
	.loc 2 117 12 view .LVU127
	leaq	112(%rsp), %rdx
	movl	$16, %r8d
	movq	72(%rsp), %rcx
	.loc 2 115 26 view .LVU128
	movw	%ax, 114(%rsp)
	.loc 2 117 4 is_stmt 1 view .LVU129
	.loc 2 117 12 is_stmt 0 view .LVU130
	call	*__imp_bind(%rip)
.LVL40:
	.loc 2 117 4 view .LVU131
	addl	$1, %eax
	je	.L93
	.loc 2 123 7 is_stmt 1 view .LVU132
	.loc 2 123 13 is_stmt 0 view .LVU133
	leaq	.LC10(%rip), %rcx
	call	_Z6printfPKcz
.LVL41:
	.loc 2 127 4 is_stmt 1 view .LVU134
	.loc 2 127 14 is_stmt 0 view .LVU135
	movl	$5, %edx
	movq	72(%rsp), %rcx
	call	*__imp_listen(%rip)
.LVL42:
	.loc 2 127 4 view .LVU136
	testl	%eax, %eax
	jne	.L94
	.loc 2 133 7 is_stmt 1 view .LVU137
	.loc 2 133 13 is_stmt 0 view .LVU138
	leaq	.LC12(%rip), %rcx
	call	_Z6printfPKcz
.LVL43:
	.loc 2 139 4 is_stmt 1 view .LVU139
	.loc 2 140 19 is_stmt 0 view .LVU140
	leaq	96(%rsp), %rax
	movl	$-2147195266, %edx
	.loc 2 139 13 view .LVU141
	movl	$1, 96(%rsp)
	.loc 2 140 4 is_stmt 1 view .LVU142
	.loc 2 140 19 is_stmt 0 view .LVU143
	movq	%rax, 80(%rsp)
	movq	%rax, %r8
	movq	__imp_ioctlsocket(%rip), %rax
	movq	72(%rsp), %rcx
	movq	%rax, 88(%rsp)
	call	*%rax
.LVL44:
	.loc 2 140 4 view .LVU144
	addl	$1, %eax
	je	.L95
	.loc 2 146 7 is_stmt 1 view .LVU145
	.loc 2 146 13 is_stmt 0 view .LVU146
	leaq	.LC14(%rip), %rcx
	call	_Z6printfPKcz
.LVL45:
	movl	TotalSockets(%rip), %eax
	leaq	544(%rsp), %rdi
	leaq	1072(%rsp), %rbx
.LVL46:
	.p2align 4,,10
.L22:
	.loc 2 149 4 is_stmt 1 view .LVU147
.LBB6:
	.loc 2 153 6 view .LVU148
	.loc 2 154 6 view .LVU149
.LBB7:
	.loc 2 157 24 is_stmt 0 view .LVU150
	movq	72(%rsp), %rsi
.LBE7:
.LBB8:
	.loc 2 162 21 view .LVU151
	testl	%eax, %eax
.LBE8:
	.loc 2 154 19 view .LVU152
	movl	$0, 544(%rsp)
	.loc 2 157 6 is_stmt 1 view .LVU153
.LBB17:
	.loc 2 157 11 view .LVU154
	.loc 2 157 22 view .LVU155
.LVL47:
	.loc 2 157 22 view .LVU156
	.loc 2 157 22 view .LVU157
	.loc 2 157 27 view .LVU158
	.loc 2 157 18 is_stmt 0 view .LVU159
	movl	$1, 1072(%rsp)
	.loc 2 157 24 view .LVU160
	movq	%rsi, 1080(%rsp)
	.loc 2 157 9 is_stmt 1 view .LVU161
.LBE17:
	.loc 2 162 7 view .LVU162
.LVL48:
.LBB18:
	.loc 2 162 21 is_stmt 0 view .LVU163
	je	.L82
	leaq	SocketArray(%rip), %r8
	subl	$1, %eax
	xorl	%ebp, %ebp
	leaq	8(%r8), %rsi
	movl	$1, %r10d
	xorl	%r9d, %r9d
	leaq	(%rsi,%rax,8), %r11
	xorl	%esi, %esi
.LVL49:
	.p2align 4,,10
.L33:
	.loc 2 162 21 view .LVU164
.LBE18:
.LBE6:
	.loc 2 163 10 is_stmt 1 view .LVU165
.LBB37:
.LBB19:
.LBB9:
	.loc 2 163 27 is_stmt 0 view .LVU166
	movq	(%r8), %rax
	.loc 2 163 10 view .LVU167
	movl	8248(%rax), %ecx
	cmpl	%ecx, 8252(%rax)
	movq	8208(%rax), %rdx
	jbe	.L26
.LVL50:
.LBB10:
	.loc 2 164 45 view .LVU168
	testl	%r9d, %r9d
	je	.L51
	.loc 2 164 35 is_stmt 1 view .LVU169
	cmpq	%rdx, 552(%rsp)
	je	.L28
	leal	-1(%r9), %ecx
	movl	$1, %eax
	addq	$1, %rcx
	jmp	.L29
.LVL51:
	.p2align 4,,10
.L30:
	.loc 2 164 35 discriminator 3 view .LVU170
	addq	$1, %rax
.LVL52:
	.loc 2 164 35 is_stmt 0 discriminator 3 view .LVU171
	cmpq	%rdx, (%rdi,%rax,8)
	je	.L28
.LVL53:
.L29:
	.loc 2 164 45 discriminator 5 view .LVU172
	cmpq	%rcx, %rax
	.loc 2 164 28 discriminator 5 view .LVU173
	movl	%eax, %r12d
.LVL54:
	.loc 2 164 45 discriminator 5 view .LVU174
	jne	.L30
	.loc 2 164 28 is_stmt 1 discriminator 7 view .LVU175
	.loc 2 164 28 discriminator 7 view .LVU176
	cmpl	%r12d, %r9d
	jne	.L28
	cmpl	$64, %r9d
	jne	.L96
.LVL55:
	.p2align 4,,10
.L28:
	.loc 2 164 28 is_stmt 0 discriminator 7 view .LVU177
	addq	$8, %r8
.LBE10:
.LBE9:
	.loc 2 162 21 discriminator 2 view .LVU178
	cmpq	%r11, %r8
	jne	.L33
	testb	%sil, %sil
	je	.L34
	movl	%r9d, 544(%rsp)
.L34:
	testb	%bpl, %bpl
	je	.L82
	movl	%r10d, 1072(%rsp)
.L82:
	.loc 2 162 21 discriminator 2 view .LVU179
.LBE19:
	.loc 2 168 7 is_stmt 1 view .LVU180
	.loc 2 168 26 is_stmt 0 view .LVU181
	xorl	%r9d, %r9d
	xorl	%ecx, %ecx
	movq	%rdi, %r8
	movq	$0, 32(%rsp)
	movq	%rbx, %rdx
	call	*__imp_select(%rip)
.LVL56:
	.loc 2 168 7 view .LVU182
	cmpl	$-1, %eax
	.loc 2 168 26 view .LVU183
	movl	%eax, %ebp
.LVL57:
	.loc 2 168 7 view .LVU184
	je	.L97
	.loc 2 174 10 is_stmt 1 view .LVU185
	.loc 2 174 16 is_stmt 0 view .LVU186
	leaq	.LC16(%rip), %rcx
	call	_Z6printfPKcz
.LVL58:
	.loc 2 178 7 is_stmt 1 view .LVU187
	.loc 2 178 22 is_stmt 0 view .LVU188
	movq	72(%rsp), %rcx
	movq	%rbx, %rdx
	call	__WSAFDIsSet
.LVL59:
	.loc 2 178 7 view .LVU189
	testl	%eax, %eax
	jne	.L98
.L36:
.LVL60:
.LBB20:
	.loc 2 217 29 discriminator 1 view .LVU190
	testl	%ebp, %ebp
	movl	TotalSockets(%rip), %eax
	je	.L22
	.loc 2 217 29 view .LVU191
	testl	%eax, %eax
	je	.L42
	leaq	SocketArray(%rip), %r12
	xorl	%esi, %esi
.LBB21:
	.loc 2 232 24 view .LVU192
	movq	__imp_WSARecv(%rip), %r14
	jmp	.L43
.LVL61:
	.p2align 4,,10
.L47:
	.loc 2 232 24 view .LVU193
.LBE21:
	.loc 2 217 29 discriminator 3 view .LVU194
	testl	%ebp, %ebp
	movl	TotalSockets(%rip), %eax
	je	.L22
	.loc 2 217 29 discriminator 3 view .LVU195
	addq	$1, %rsi
.LVL62:
	.loc 2 217 29 discriminator 2 view .LVU196
	cmpl	%esi, %eax
	jbe	.L22
.LVL63:
.L43:
.LBB22:
	.loc 2 219 31 view .LVU197
	movq	(%r12,%rsi,8), %r13
	.loc 2 223 25 view .LVU198
	movq	%rbx, %rdx
	movl	%esi, %r15d
.LVL64:
	.loc 2 219 10 is_stmt 1 view .LVU199
	.loc 2 223 10 view .LVU200
	.loc 2 223 25 is_stmt 0 view .LVU201
	movq	8208(%r13), %rcx
	call	__WSAFDIsSet
.LVL65:
	.loc 2 223 10 view .LVU202
	testl	%eax, %eax
	je	.L44
	.loc 2 225 13 is_stmt 1 view .LVU203
	.loc 2 232 24 is_stmt 0 view .LVU204
	leaq	100(%rsp), %rax
	movl	$1, %r8d
	.loc 2 225 18 view .LVU205
	subl	$1, %ebp
.LVL66:
	.loc 2 227 13 is_stmt 1 view .LVU206
	.loc 2 227 37 is_stmt 0 view .LVU207
	movq	%r13, 8200(%r13)
	.loc 2 228 13 is_stmt 1 view .LVU208
	.loc 2 228 37 is_stmt 0 view .LVU209
	movl	$8192, 8192(%r13)
	.loc 2 230 13 is_stmt 1 view .LVU210
	.loc 2 232 24 is_stmt 0 view .LVU211
	movq	8208(%r13), %rcx
	leaq	8192(%r13), %rdx
	.loc 2 230 19 view .LVU212
	movl	$0, 100(%rsp)
	.loc 2 232 13 is_stmt 1 view .LVU213
	.loc 2 232 24 is_stmt 0 view .LVU214
	leaq	108(%rsp), %r9
	movq	$0, 48(%rsp)
	movq	$0, 40(%rsp)
	movq	%rax, 32(%rsp)
	call	*%r14
.LVL67:
	.loc 2 232 13 view .LVU215
	cmpl	$-1, %eax
	je	.L99
	.loc 2 248 16 is_stmt 1 view .LVU216
	.loc 2 248 38 is_stmt 0 view .LVU217
	movl	108(%rsp), %eax
	.loc 2 250 16 view .LVU218
	testl	%eax, %eax
	.loc 2 248 38 view .LVU219
	movl	%eax, 8252(%r13)
	.loc 2 250 16 is_stmt 1 view .LVU220
	je	.L100
.L44:
	.loc 2 260 10 view .LVU221
	.loc 2 260 25 is_stmt 0 view .LVU222
	movq	8208(%r13), %rcx
	movq	%rdi, %rdx
	call	__WSAFDIsSet
.LVL68:
	.loc 2 260 10 view .LVU223
	testl	%eax, %eax
	je	.L47
	.loc 2 263 13 is_stmt 1 view .LVU224
	.loc 2 265 72 is_stmt 0 view .LVU225
	movl	8248(%r13), %eax
	.loc 2 268 24 view .LVU226
	leaq	104(%rsp), %r9
	movl	$1, %r8d
	.loc 2 263 18 view .LVU227
	subl	$1, %ebp
.LVL69:
	.loc 2 265 13 is_stmt 1 view .LVU228
	.loc 2 268 24 is_stmt 0 view .LVU229
	movq	8208(%r13), %rcx
	.loc 2 265 72 view .LVU230
	movq	%rax, %rdx
	.loc 2 265 58 view .LVU231
	addq	%r13, %rax
	movq	%rax, 8200(%r13)
	.loc 2 266 13 is_stmt 1 view .LVU232
	.loc 2 266 61 is_stmt 0 view .LVU233
	movl	8252(%r13), %eax
	subl	%edx, %eax
	.loc 2 266 37 view .LVU234
	movl	%eax, 8192(%r13)
	.loc 2 268 13 is_stmt 1 view .LVU235
	.loc 2 268 24 is_stmt 0 view .LVU236
	leaq	8192(%r13), %rdx
	movq	$0, 48(%rsp)
	movq	$0, 40(%rsp)
	movl	$0, 32(%rsp)
	call	*__imp_WSASend(%rip)
.LVL70:
	.loc 2 268 13 view .LVU237
	cmpl	$-1, %eax
	je	.L101
	.loc 2 282 16 is_stmt 1 view .LVU238
	.loc 2 282 38 is_stmt 0 view .LVU239
	movl	104(%rsp), %eax
	addl	8248(%r13), %eax
	.loc 2 284 16 view .LVU240
	cmpl	8252(%r13), %eax
	.loc 2 282 38 view .LVU241
	movl	%eax, 8248(%r13)
	.loc 2 284 16 is_stmt 1 view .LVU242
	jne	.L47
	.loc 2 286 19 view .LVU243
	.loc 2 287 19 view .LVU244
	.loc 2 286 41 is_stmt 0 view .LVU245
	movq	$0, 8248(%r13)
	jmp	.L47
.LVL71:
.L91:
	.loc 2 286 41 view .LVU246
.LBE22:
.LBE20:
.LBE37:
	.loc 2 91 7 is_stmt 1 view .LVU247
	.loc 2 91 13 is_stmt 0 view .LVU248
	leaq	.LC5(%rip), %rcx
	movl	%eax, %edx
	call	_Z6printfPKcz
.LVL72:
	.loc 2 92 7 is_stmt 1 view .LVU249
	.loc 2 92 17 is_stmt 0 view .LVU250
	call	*__imp_WSACleanup(%rip)
.LVL73:
	.loc 2 93 7 is_stmt 1 view .LVU251
.L17:
	.loc 2 295 1 is_stmt 0 view .LVU252
	movl	$1, %eax
	addq	$1608, %rsp
	.cfi_remember_state
	.cfi_def_cfa_offset 72
	popq	%rbx
	.cfi_restore 3
	.cfi_def_cfa_offset 64
	popq	%rsi
	.cfi_restore 4
	.cfi_def_cfa_offset 56
	popq	%rdi
	.cfi_restore 5
	.cfi_def_cfa_offset 48
	popq	%rbp
	.cfi_restore 6
	.cfi_def_cfa_offset 40
	popq	%r12
	.cfi_restore 12
	.cfi_def_cfa_offset 32
	popq	%r13
	.cfi_restore 13
	.cfi_def_cfa_offset 24
	popq	%r14
	.cfi_restore 14
	.cfi_def_cfa_offset 16
	popq	%r15
	.cfi_restore 15
	.cfi_def_cfa_offset 8
	ret
.LVL74:
.L14:
	.cfi_restore_state
	.loc 2 85 9 is_stmt 1 view .LVU253
	.loc 2 85 15 is_stmt 0 view .LVU254
	leaq	.LC4(%rip), %rcx
	call	_Z6printfPKcz
.LVL75:
	.loc 2 86 9 is_stmt 1 view .LVU255
	.loc 2 86 15 is_stmt 0 view .LVU256
	jmp	.L17
.LVL76:
.L94:
	.loc 2 129 7 is_stmt 1 view .LVU257
	.loc 2 129 13 is_stmt 0 view .LVU258
	call	*__imp_WSAGetLastError(%rip)
.LVL77:
	leaq	.LC11(%rip), %rcx
	movl	%eax, %edx
	call	_Z6printfPKcz
.LVL78:
	.loc 2 130 7 is_stmt 1 view .LVU259
	.loc 2 130 14 is_stmt 0 view .LVU260
	jmp	.L17
.LVL79:
	.p2align 4,,10
.L26:
.LBB38:
.LBB28:
.LBB14:
.LBB11:
	.loc 2 166 35 is_stmt 1 view .LVU261
	cmpq	%rdx, 1080(%rsp)
	je	.L28
	leal	-1(%r10), %ecx
	movl	$1, %eax
	addq	$1, %rcx
	jmp	.L31
.LVL80:
	.p2align 4,,10
.L32:
	.loc 2 166 35 discriminator 3 view .LVU262
	addq	$1, %rax
.LVL81:
	.loc 2 166 35 is_stmt 0 discriminator 3 view .LVU263
	cmpq	%rdx, (%rbx,%rax,8)
	je	.L28
.LVL82:
.L31:
	.loc 2 166 45 discriminator 5 view .LVU264
	cmpq	%rax, %rcx
	.loc 2 166 28 discriminator 5 view .LVU265
	movl	%eax, %r12d
.LVL83:
	.loc 2 166 45 discriminator 5 view .LVU266
	jne	.L32
	.loc 2 166 28 is_stmt 1 discriminator 7 view .LVU267
	.loc 2 166 28 discriminator 7 view .LVU268
	cmpl	$64, %r10d
	setne	%al
.LVL84:
	.loc 2 166 28 is_stmt 0 discriminator 7 view .LVU269
	cmpl	%r12d, %r10d
	sete	%cl
	.loc 2 166 28 discriminator 7 view .LVU270
	andb	%cl, %al
	je	.L28
	addl	$1, %r10d
	.loc 2 166 33 is_stmt 1 view .LVU271
	.loc 2 166 30 is_stmt 0 view .LVU272
	movq	%rdx, 1080(%rsp,%r12,8)
	.loc 2 166 15 is_stmt 1 view .LVU273
	movl	%eax, %ebp
	jmp	.L28
.LVL85:
	.p2align 4,,10
.L100:
	.loc 2 166 15 is_stmt 0 view .LVU274
.LBE11:
.LBE14:
.LBE28:
.LBB29:
.LBB23:
	.loc 2 252 19 is_stmt 1 view .LVU275
	.loc 2 252 40 is_stmt 0 view .LVU276
	movl	%esi, %ecx
	call	_Z21FreeSocketInformationm
.LVL86:
	.loc 2 253 19 is_stmt 1 view .LVU277
	jmp	.L47
.LVL87:
	.p2align 4,,10
.L96:
	.loc 2 253 19 is_stmt 0 view .LVU278
	addl	$1, %r9d
.LVL88:
.L27:
	.loc 2 253 19 view .LVU279
.LBE23:
.LBE29:
.LBB30:
.LBB15:
.LBB12:
	.loc 2 164 33 is_stmt 1 discriminator 8 view .LVU280
	.loc 2 164 30 is_stmt 0 discriminator 8 view .LVU281
	movq	%rdx, 552(%rsp,%r12,8)
	.loc 2 164 15 is_stmt 1 discriminator 8 view .LVU282
	movl	$1, %esi
	jmp	.L28
.LVL89:
	.p2align 4,,10
.L99:
	.loc 2 164 15 is_stmt 0 discriminator 8 view .LVU283
.LBE12:
.LBE15:
.LBE30:
.LBB31:
.LBB24:
	.loc 2 234 16 is_stmt 1 view .LVU284
	.loc 2 234 35 is_stmt 0 view .LVU285
	movq	__imp_WSAGetLastError(%rip), %r13
.LVL90:
	.loc 2 234 35 view .LVU286
	call	*%r13
.LVL91:
	.loc 2 234 16 view .LVU287
	cmpl	$10035, %eax
	je	.L46
	.loc 2 236 19 is_stmt 1 view .LVU288
	.loc 2 236 25 is_stmt 0 view .LVU289
	call	*%r13
.LVL92:
	leaq	.LC23(%rip), %rcx
	movl	%eax, %edx
	call	_Z6printfPKcz
.LVL93:
	.loc 2 237 19 is_stmt 1 view .LVU290
	.loc 2 237 40 is_stmt 0 view .LVU291
	movl	%esi, %ecx
	call	_Z21FreeSocketInformationm
.LVL94:
	jmp	.L47
.LVL95:
.L98:
	.loc 2 237 40 view .LVU292
.LBE24:
.LBE31:
	.loc 2 180 10 is_stmt 1 view .LVU293
	.loc 2 181 36 is_stmt 0 view .LVU294
	xorl	%r8d, %r8d
	xorl	%edx, %edx
	movq	72(%rsp), %rcx
	.loc 2 180 15 view .LVU295
	subl	$1, %ebp
.LVL96:
	.loc 2 181 10 is_stmt 1 view .LVU296
	.loc 2 181 36 is_stmt 0 view .LVU297
	call	*__imp_accept(%rip)
.LVL97:
	.loc 2 181 10 view .LVU298
	cmpq	$-1, %rax
	.loc 2 181 36 view .LVU299
	movq	%rax, %rsi
.LVL98:
	.loc 2 181 10 view .LVU300
	je	.L37
	.loc 2 185 13 is_stmt 1 view .LVU301
	.loc 2 186 28 is_stmt 0 view .LVU302
	movq	%rax, %rcx
	movq	80(%rsp), %r8
	movl	$-2147195266, %edx
	.loc 2 185 22 view .LVU303
	movl	$1, 96(%rsp)
	.loc 2 186 13 is_stmt 1 view .LVU304
	.loc 2 186 28 is_stmt 0 view .LVU305
	movq	88(%rsp), %rax
.LVL99:
	.loc 2 186 28 view .LVU306
	call	*%rax
.LVL100:
	.loc 2 186 13 view .LVU307
	cmpl	$-1, %eax
	je	.L102
	.loc 2 192 16 is_stmt 1 view .LVU308
	.loc 2 192 22 is_stmt 0 view .LVU309
	leaq	.LC18(%rip), %rcx
	call	_Z6printfPKcz
.LVL101:
	.loc 2 194 13 is_stmt 1 view .LVU310
	.loc 2 194 40 is_stmt 0 view .LVU311
	movq	%rsi, %rcx
	call	_Z23CreateSocketInformationy
.LVL102:
	.loc 2 194 13 view .LVU312
	testl	%eax, %eax
	je	.L103
	.loc 2 200 17 is_stmt 1 view .LVU313
	.loc 2 200 23 is_stmt 0 view .LVU314
	leaq	.LC20(%rip), %rcx
	call	_Z6printfPKcz
.LVL103:
	jmp	.L36
.LVL104:
.L101:
.LBB32:
.LBB25:
	.loc 2 270 16 is_stmt 1 view .LVU315
	.loc 2 270 35 is_stmt 0 view .LVU316
	call	*__imp_WSAGetLastError(%rip)
.LVL105:
	.loc 2 270 16 view .LVU317
	cmpl	$10035, %eax
	je	.L49
	.loc 2 272 19 is_stmt 1 view .LVU318
	.loc 2 272 25 is_stmt 0 view .LVU319
	call	*__imp_WSAGetLastError(%rip)
.LVL106:
	leaq	.LC25(%rip), %rcx
	movl	%eax, %edx
	call	_Z6printfPKcz
.LVL107:
	.loc 2 273 19 is_stmt 1 view .LVU320
	.loc 2 273 40 is_stmt 0 view .LVU321
	movl	%r15d, %ecx
	call	_Z21FreeSocketInformationm
.LVL108:
	jmp	.L47
.LVL109:
.L51:
	.loc 2 273 40 view .LVU322
.LBE25:
.LBE32:
.LBB33:
.LBB16:
.LBB13:
	.loc 2 164 36 view .LVU323
	xorl	%r12d, %r12d
	.loc 2 164 45 view .LVU324
	movl	$1, %r9d
	jmp	.L27
.LVL110:
.L46:
	.loc 2 164 45 view .LVU325
.LBE13:
.LBE16:
.LBE33:
.LBB34:
.LBB26:
	.loc 2 240 19 is_stmt 1 view .LVU326
	.loc 2 240 25 is_stmt 0 view .LVU327
	leaq	.LC24(%rip), %rcx
	call	_Z6printfPKcz
.LVL111:
	jmp	.L47
.LVL112:
.L37:
	.loc 2 240 25 view .LVU328
.LBE26:
.LBE34:
	.loc 2 205 13 is_stmt 1 view .LVU329
	.loc 2 205 32 is_stmt 0 view .LVU330
	call	*__imp_WSAGetLastError(%rip)
.LVL113:
	.loc 2 205 13 view .LVU331
	cmpl	$10035, %eax
	jne	.L104
	.loc 2 211 16 is_stmt 1 view .LVU332
	.loc 2 211 22 is_stmt 0 view .LVU333
	leaq	.LC22(%rip), %rcx
	call	_Z6printfPKcz
.LVL114:
	jmp	.L36
.LVL115:
.L49:
.LBB35:
.LBB27:
	.loc 2 276 19 is_stmt 1 view .LVU334
	.loc 2 276 25 is_stmt 0 view .LVU335
	leaq	.LC26(%rip), %rcx
	call	_Z6printfPKcz
.LVL116:
	jmp	.L47
.LVL117:
.L42:
	.loc 2 276 25 view .LVU336
.LBE27:
.LBE35:
.LBE38:
	.loc 2 149 4 is_stmt 1 view .LVU337
.LBB39:
	.loc 2 153 6 view .LVU338
	.loc 2 154 6 view .LVU339
	.loc 2 154 19 is_stmt 0 view .LVU340
	movl	$0, 544(%rsp)
	.loc 2 157 6 is_stmt 1 view .LVU341
.LBB36:
	.loc 2 157 11 view .LVU342
	.loc 2 157 22 view .LVU343
	.loc 2 157 22 view .LVU344
	.loc 2 157 22 view .LVU345
	.loc 2 157 27 view .LVU346
	.loc 2 157 24 is_stmt 0 view .LVU347
	movq	72(%rsp), %rax
	.loc 2 157 18 view .LVU348
	movl	$1, 1072(%rsp)
	.loc 2 157 24 view .LVU349
	movq	%rax, 1080(%rsp)
	.loc 2 157 9 is_stmt 1 view .LVU350
.LBE36:
	.loc 2 162 7 view .LVU351
	.loc 2 162 7 is_stmt 0 view .LVU352
	jmp	.L82
.LVL118:
.L97:
	.loc 2 170 10 is_stmt 1 view .LVU353
	.loc 2 170 16 is_stmt 0 view .LVU354
	call	*__imp_WSAGetLastError(%rip)
.LVL119:
	.loc 2 170 16 view .LVU355
	leaq	.LC15(%rip), %rcx
	movl	%eax, %edx
	call	_Z6printfPKcz
.LVL120:
	.loc 2 171 10 is_stmt 1 view .LVU356
	.loc 2 171 16 is_stmt 0 view .LVU357
	jmp	.L17
.LVL121:
.L92:
	.loc 2 171 16 view .LVU358
.LBE39:
	.loc 2 105 7 is_stmt 1 view .LVU359
	.loc 2 105 13 is_stmt 0 view .LVU360
	call	*__imp_WSAGetLastError(%rip)
.LVL122:
	leaq	.LC7(%rip), %rcx
	movl	%eax, %edx
	call	_Z6printfPKcz
.LVL123:
	.loc 2 106 7 is_stmt 1 view .LVU361
	.loc 2 106 14 is_stmt 0 view .LVU362
	jmp	.L17
.L93:
	.loc 2 119 7 is_stmt 1 view .LVU363
	.loc 2 119 13 is_stmt 0 view .LVU364
	call	*__imp_WSAGetLastError(%rip)
.LVL124:
	leaq	.LC9(%rip), %rcx
	movl	%eax, %edx
	call	_Z6printfPKcz
.LVL125:
	.loc 2 120 7 is_stmt 1 view .LVU365
	.loc 2 120 14 is_stmt 0 view .LVU366
	jmp	.L17
.L95:
	.loc 2 142 7 is_stmt 1 view .LVU367
	.loc 2 142 13 is_stmt 0 view .LVU368
	call	*__imp_WSAGetLastError(%rip)
.LVL126:
	leaq	.LC13(%rip), %rcx
	movl	%eax, %edx
	call	_Z6printfPKcz
.LVL127:
	.loc 2 143 7 is_stmt 1 view .LVU369
	.loc 2 143 14 is_stmt 0 view .LVU370
	jmp	.L17
.LVL128:
.L102:
.LBB40:
	.loc 2 188 16 is_stmt 1 view .LVU371
	.loc 2 188 22 is_stmt 0 view .LVU372
	call	*__imp_WSAGetLastError(%rip)
.LVL129:
	leaq	.LC17(%rip), %rcx
	movl	%eax, %edx
	call	_Z6printfPKcz
.LVL130:
	.loc 2 189 16 is_stmt 1 view .LVU373
	.loc 2 189 23 is_stmt 0 view .LVU374
	jmp	.L17
.L104:
	.loc 2 207 16 is_stmt 1 view .LVU375
	.loc 2 207 22 is_stmt 0 view .LVU376
	call	*__imp_WSAGetLastError(%rip)
.LVL131:
	leaq	.LC21(%rip), %rcx
	movl	%eax, %edx
	call	_Z6printfPKcz
.LVL132:
	.loc 2 208 16 is_stmt 1 view .LVU377
	.loc 2 208 23 is_stmt 0 view .LVU378
	jmp	.L17
.L103:
	.loc 2 196 18 is_stmt 1 view .LVU379
	.loc 2 196 24 is_stmt 0 view .LVU380
	leaq	.LC19(%rip), %rcx
	call	_Z6printfPKcz
.LVL133:
	.loc 2 197 18 is_stmt 1 view .LVU381
	.loc 2 197 25 is_stmt 0 view .LVU382
	jmp	.L17
.LBE40:
	.cfi_endproc
.LFE6017:
	.seh_endproc
	.globl	SocketArray
	.bss
	.align 32
SocketArray:
	.space 512
	.globl	TotalSockets
	.align 4
TotalSockets:
	.space 4
	.text
.Letext0:
	.file 3 "D:/Programs/mingw-w64/mingw64/x86_64-w64-mingw32/include/crtdefs.h"
	.file 4 "D:/Programs/mingw-w64/mingw64/x86_64-w64-mingw32/include/excpt.h"
	.file 5 "D:/Programs/mingw-w64/mingw64/x86_64-w64-mingw32/include/minwindef.h"
	.file 6 "D:/Programs/mingw-w64/mingw64/x86_64-w64-mingw32/include/ctype.h"
	.file 7 "D:/Programs/mingw-w64/mingw64/x86_64-w64-mingw32/include/basetsd.h"
	.file 8 "D:/Programs/mingw-w64/mingw64/x86_64-w64-mingw32/include/winnt.h"
	.file 9 "D:/Programs/mingw-w64/mingw64/x86_64-w64-mingw32/include/guiddef.h"
	.file 10 "D:/Programs/mingw-w64/mingw64/lib/gcc/x86_64-w64-mingw32/8.1.0/include/c++/cstdlib"
	.file 11 "D:/Programs/mingw-w64/mingw64/lib/gcc/x86_64-w64-mingw32/8.1.0/include/c++/bits/std_abs.h"
	.file 12 "D:/Programs/mingw-w64/mingw64/lib/gcc/x86_64-w64-mingw32/8.1.0/include/c++/x86_64-w64-mingw32/bits/c++config.h"
	.file 13 "D:/Programs/mingw-w64/mingw64/x86_64-w64-mingw32/include/stdlib.h"
	.file 14 "D:/Programs/mingw-w64/mingw64/x86_64-w64-mingw32/include/malloc.h"
	.file 15 "D:/Programs/mingw-w64/mingw64/lib/gcc/x86_64-w64-mingw32/8.1.0/include/c++/stdlib.h"
	.file 16 "D:/Programs/mingw-w64/mingw64/x86_64-w64-mingw32/include/minwinbase.h"
	.file 17 "D:/Programs/mingw-w64/mingw64/x86_64-w64-mingw32/include/rpcdce.h"
	.file 18 "D:/Programs/mingw-w64/mingw64/x86_64-w64-mingw32/include/wtypesbase.h"
	.file 19 "D:/Programs/mingw-w64/mingw64/x86_64-w64-mingw32/include/unknwnbase.h"
	.file 20 "D:/Programs/mingw-w64/mingw64/x86_64-w64-mingw32/include/objidlbase.h"
	.file 21 "D:/Programs/mingw-w64/mingw64/x86_64-w64-mingw32/include/cguid.h"
	.file 22 "D:/Programs/mingw-w64/mingw64/x86_64-w64-mingw32/include/wtypes.h"
	.file 23 "D:/Programs/mingw-w64/mingw64/x86_64-w64-mingw32/include/objidl.h"
	.file 24 "D:/Programs/mingw-w64/mingw64/x86_64-w64-mingw32/include/oleidl.h"
	.file 25 "D:/Programs/mingw-w64/mingw64/x86_64-w64-mingw32/include/servprov.h"
	.file 26 "D:/Programs/mingw-w64/mingw64/x86_64-w64-mingw32/include/oaidl.h"
	.file 27 "D:/Programs/mingw-w64/mingw64/x86_64-w64-mingw32/include/msxml.h"
	.file 28 "D:/Programs/mingw-w64/mingw64/x86_64-w64-mingw32/include/urlmon.h"
	.file 29 "D:/Programs/mingw-w64/mingw64/x86_64-w64-mingw32/include/propidl.h"
	.file 30 "D:/Programs/mingw-w64/mingw64/x86_64-w64-mingw32/include/oleauto.h"
	.file 31 "D:/Programs/mingw-w64/mingw64/x86_64-w64-mingw32/include/winioctl.h"
	.file 32 "D:/Programs/mingw-w64/mingw64/x86_64-w64-mingw32/include/winsmcrd.h"
	.file 33 "D:/Programs/mingw-w64/mingw64/x86_64-w64-mingw32/include/winscard.h"
	.file 34 "D:/Programs/mingw-w64/mingw64/x86_64-w64-mingw32/include/commdlg.h"
	.file 35 "D:/Programs/mingw-w64/mingw64/x86_64-w64-mingw32/include/_bsd_types.h"
	.file 36 "D:/Programs/mingw-w64/mingw64/x86_64-w64-mingw32/include/inaddr.h"
	.file 37 "D:/Programs/mingw-w64/mingw64/x86_64-w64-mingw32/include/psdk_inc/_socket_types.h"
	.file 38 "D:/Programs/mingw-w64/mingw64/x86_64-w64-mingw32/include/psdk_inc/_fd_types.h"
	.file 39 "D:/Programs/mingw-w64/mingw64/x86_64-w64-mingw32/include/psdk_inc/_ip_types.h"
	.file 40 "D:/Programs/mingw-w64/mingw64/x86_64-w64-mingw32/include/psdk_inc/_wsadata.h"
	.file 41 "D:/Programs/mingw-w64/mingw64/x86_64-w64-mingw32/include/winsock2.h"
	.file 42 "D:/Programs/mingw-w64/mingw64/x86_64-w64-mingw32/include/in6addr.h"
	.file 43 "D:/Programs/mingw-w64/mingw64/x86_64-w64-mingw32/include/Ws2tcpip.h"
	.file 44 "D:/Programs/mingw-w64/mingw64/x86_64-w64-mingw32/include/winbase.h"
	.file 45 "D:/Programs/mingw-w64/mingw64/x86_64-w64-mingw32/include/errhandlingapi.h"
	.file 46 "<built-in>"